; Function Attrs: nounwind uwtable
define ptr @l_Lean_Compiler_LCNF_getParamTypes_go(ptr noundef %0, ptr noundef %1) local_unnamed_addr #1 {
  br label %3

3:                                                ; preds = %lean_dec.exit13, %2
  %.012 = phi ptr [ %1, %2 ], [ %38, %lean_dec.exit13 ]
  %.0 = phi ptr [ %0, %2 ], [ %22, %lean_dec.exit13 ]
  %4 = ptrtoint ptr %.0 to i64
  %5 = and i64 %4, 1
  %.not.i17 = icmp eq i64 %5, 0
  br i1 %.not.i17, label %lean_obj_tag.exit.thread, label %lean_obj_tag.exit

lean_obj_tag.exit:                                ; preds = %3
  %6 = and i64 %4, 8589934590
  %7 = icmp eq i64 %6, 14
  br i1 %7, label %10, label %lean_dec.exit

lean_obj_tag.exit.thread:                         ; preds = %3
  %8 = getelementptr i8, ptr %.0, i64 4
  %.val.i = load i32, ptr %8, align 4
  %.mask = and i32 %.val.i, -16777216
  %9 = icmp eq i32 %.mask, 117440512
  br i1 %9, label %10, label %.thread

10:                                               ; preds = %lean_obj_tag.exit.thread, %lean_obj_tag.exit
  %11 = getelementptr inbounds nuw i8, ptr %.0, i64 16
  %12 = load ptr, ptr %11, align 8, !tbaa !12
  %13 = ptrtoint ptr %12 to i64
  %14 = and i64 %13, 1
  %.not = icmp eq i64 %14, 0
  br i1 %.not, label %15, label %lean_inc.exit14

15:                                               ; preds = %10
  %.val.i18 = load i32, ptr %12, align 4, !tbaa !8
  %16 = icmp sgt i32 %.val.i18, 0
  br i1 %16, label %17, label %19, !prof !11

17:                                               ; preds = %15
  %18 = add nuw i32 %.val.i18, 1
  store i32 %18, ptr %12, align 4, !tbaa !8
  br label %lean_inc.exit14

19:                                               ; preds = %15
  %.not.i19 = icmp eq i32 %.val.i18, 0
  br i1 %.not.i19, label %lean_inc.exit14, label %20

20:                                               ; preds = %19
  tail call void @lean_inc_ref_cold(ptr noundef nonnull %12) #5
  br label %lean_inc.exit14

lean_inc.exit14:                                  ; preds = %20, %19, %17, %10
  %21 = getelementptr inbounds nuw i8, ptr %.0, i64 24
  %22 = load ptr, ptr %21, align 8, !tbaa !12
  %23 = ptrtoint ptr %22 to i64
  %24 = and i64 %23, 1
  %.not24 = icmp eq i64 %24, 0
  br i1 %.not24, label %25, label %lean_inc.exit

25:                                               ; preds = %lean_inc.exit14
  %.val.i20 = load i32, ptr %22, align 4, !tbaa !8
  %26 = icmp sgt i32 %.val.i20, 0
  br i1 %26, label %27, label %29, !prof !11

27:                                               ; preds = %25
  %28 = add nuw i32 %.val.i20, 1
  store i32 %28, ptr %22, align 4, !tbaa !8
  br label %lean_inc.exit

29:                                               ; preds = %25
  %.not.i21 = icmp eq i32 %.val.i20, 0
  br i1 %.not.i21, label %lean_inc.exit, label %30

30:                                               ; preds = %29
  tail call void @lean_inc_ref_cold(ptr noundef nonnull %22) #5
  br label %lean_inc.exit

lean_inc.exit:                                    ; preds = %30, %29, %27, %lean_inc.exit14
  br i1 %.not.i17, label %31, label %lean_dec.exit13

31:                                               ; preds = %lean_inc.exit
  %32 = load i32, ptr %.0, align 4, !tbaa !8
  %33 = icmp sgt i32 %32, 1
  br i1 %33, label %34, label %36, !prof !11

34:                                               ; preds = %31
  %35 = add nsw i32 %32, -1
  store i32 %35, ptr %.0, align 4, !tbaa !8
  br label %lean_dec.exit13

36:                                               ; preds = %31
  %.not.i = icmp eq i32 %32, 0
  br i1 %.not.i, label %lean_dec.exit13, label %37

37:                                               ; preds = %36
  tail call void @lean_dec_ref_cold(ptr noundef nonnull %.0) #5
  br label %lean_dec.exit13

lean_dec.exit13:                                  ; preds = %37, %36, %34, %lean_inc.exit
  %38 = tail call ptr @lean_array_push(ptr noundef %.012, ptr noundef %12) #5
  br label %3

.thread:                                          ; preds = %lean_obj_tag.exit.thread
  %39 = load i32, ptr %.0, align 4, !tbaa !8
  %40 = icmp sgt i32 %39, 1
  br i1 %40, label %41, label %43, !prof !11

41:                                               ; preds = %.thread
  %42 = add nsw i32 %39, -1
  store i32 %42, ptr %.0, align 4, !tbaa !8
  br label %lean_dec.exit

43:                                               ; preds = %.thread
  %.not.i15 = icmp eq i32 %39, 0
  br i1 %.not.i15, label %lean_dec.exit, label %44

44:                                               ; preds = %43
  tail call void @lean_dec_ref_cold(ptr noundef nonnull %.0) #5
  br label %lean_dec.exit

lean_dec.exit:                                    ; preds = %lean_obj_tag.exit, %44, %43, %41
  ret ptr %.012
}